; Function Attrs: nounwind uwtable
define internal ptr @array_get_itemsize(ptr noundef readonly captures(none) %0, ptr readnone captures(none) %1) #0 {
  %3 = getelementptr inbounds nuw i8, ptr %0, i64 40
  %4 = load ptr, ptr %3, align 8, !tbaa !76
  %5 = getelementptr inbounds nuw i8, ptr %4, i64 4
  %6 = load i32, ptr %5, align 4, !tbaa !49
  %7 = sext i32 %6 to i64
  %8 = tail call ptr @PyLong_FromLong(i64 noundef %7) #11
  ret ptr %8
}